; Function Attrs: mustprogress uwtable
define noundef zeroext i1 @_ZNK4cvc58internal8TypeNode22isInstantiatedDatatypeEv(ptr noundef nonnull readonly align 8 captures(none) dereferenceable(8) %0) local_unnamed_addr #4 align 2 personality ptr @__gxx_personality_v0 {
  %2 = alloca %"class.cvc5::internal::TypeNode", align 8
  %3 = alloca %"class.cvc5::internal::TypeNode", align 8
  %4 = load ptr, ptr %0, align 8, !tbaa !3
  %5 = getelementptr inbounds nuw i8, ptr %4, i64 8
  %6 = load i64, ptr %5, align 8
  %7 = trunc i64 %6 to i32
  %8 = and i32 %7, 1023
  switch i32 %8, label %9 [
    i32 244, label %.critedge
    i32 230, label %.critedge
    i32 228, label %.critedge
    i32 229, label %10
  ]

9:                                                ; preds = %1
  br label %.critedge

10:                                               ; preds = %1
  call void @llvm.lifetime.start.p0(i64 8, ptr nonnull %2) #24
  tail call void @llvm.experimental.noalias.scope.decl(metadata !222)
  %11 = tail call noundef i32 @_ZN4cvc58internal4kind10metaKindOfENS1_6Kind_tE(i32 noundef 229), !noalias !222
  %12 = icmp eq i32 %11, 2
  %13 = getelementptr inbounds nuw i8, ptr %4, i64 24
  %14 = zext i1 %12 to i64
  %15 = getelementptr inbounds nuw [0 x ptr], ptr %13, i64 0, i64 %14
  %16 = load ptr, ptr %15, align 8, !tbaa !32, !noalias !222
  store ptr %16, ptr %2, align 8, !tbaa !3, !alias.scope !222
  %17 = load i64, ptr %16, align 8, !noalias !222
  %18 = lshr i64 %17, 40
  %19 = trunc nuw nsw i64 %18 to i32
  %20 = and i32 %19, 1048575
  %21 = icmp samesign ult i32 %20, 1048574
  br i1 %21, label %22, label %27, !prof !27

22:                                               ; preds = %10
  %23 = add i64 %17, 1099511627776
  %24 = and i64 %23, 1152920405095219200
  %25 = and i64 %17, -1152920405095219201
  %26 = or disjoint i64 %24, %25
  store i64 %26, ptr %16, align 8, !noalias !222
  br label %_ZNK4cvc58internal8TypeNodeixEi.exit

27:                                               ; preds = %10
  %28 = icmp eq i32 %20, 1048574
  br i1 %28, label %29, label %_ZNK4cvc58internal8TypeNodeixEi.exit, !prof !9

29:                                               ; preds = %27
  %30 = or i64 %17, 1152920405095219200
  store i64 %30, ptr %16, align 8, !noalias !222
  tail call void @_ZN4cvc58internal4expr9NodeValue20markRefCountMaxedOutEv(ptr noundef nonnull align 8 dereferenceable(24) %16), !noalias !222
  br label %_ZNK4cvc58internal8TypeNodeixEi.exit

_ZNK4cvc58internal8TypeNodeixEi.exit:             ; preds = %22, %27, %29
  %31 = invoke noundef nonnull align 8 dereferenceable(448) ptr @_ZNK4cvc58internal8TypeNode8getDTypeEv(ptr noundef nonnull align 8 dereferenceable(8) %2)
          to label %32 unwind label %47

32:                                               ; preds = %_ZNK4cvc58internal8TypeNodeixEi.exit
  %33 = load i64, ptr %16, align 8
  %34 = and i64 %33, 1152920405095219200
  %.not.i.i = icmp eq i64 %34, 1152920405095219200
  br i1 %.not.i.i, label %_ZN4cvc58internal8TypeNodeD2Ev.exit, label %35, !prof !9

35:                                               ; preds = %32
  %36 = add i64 %33, 1152920405095219200
  %37 = and i64 %36, 1152920405095219200
  %38 = and i64 %33, -1152920405095219201
  %39 = or disjoint i64 %37, %38
  store i64 %39, ptr %16, align 8
  %40 = icmp eq i64 %37, 0
  br i1 %40, label %41, label %_ZN4cvc58internal8TypeNodeD2Ev.exit, !prof !9

41:                                               ; preds = %35
  invoke void @_ZN4cvc58internal4expr9NodeValue15markForDeletionEv(ptr noundef nonnull align 8 dereferenceable(24) %16)
          to label %_ZN4cvc58internal8TypeNodeD2Ev.exit unwind label %42

42:                                               ; preds = %41
  %43 = landingpad { ptr, i32 }
          catch ptr null
  %44 = extractvalue { ptr, i32 } %43, 0
  tail call void @__clang_call_terminate(ptr %44) #23
  unreachable

_ZN4cvc58internal8TypeNodeD2Ev.exit:              ; preds = %32, %35, %41
  call void @llvm.lifetime.end.p0(i64 8, ptr nonnull %2) #24
  %45 = tail call noundef i64 @_ZNK4cvc58internal5DType16getNumParametersEv(ptr noundef nonnull align 8 dereferenceable(448) %31)
  br label %46

46:                                               ; preds = %_ZN4cvc58internal8TypeNodeD2Ev.exit30, %_ZN4cvc58internal8TypeNodeD2Ev.exit
  %.0 = phi i64 [ 0, %_ZN4cvc58internal8TypeNodeD2Ev.exit ], [ %50, %_ZN4cvc58internal8TypeNodeD2Ev.exit30 ]
  %exitcond.not = icmp eq i64 %.0, %45
  br i1 %exitcond.not, label %.critedge, label %49

47:                                               ; preds = %_ZNK4cvc58internal8TypeNodeixEi.exit
  %48 = landingpad { ptr, i32 }
          cleanup
  call void @_ZN4cvc58internal8TypeNodeD2Ev(ptr noundef nonnull align 8 dereferenceable(8) %2) #24
  call void @llvm.lifetime.end.p0(i64 8, ptr nonnull %2) #24
  br label %108

49:                                               ; preds = %46
  call void @llvm.lifetime.start.p0(i64 8, ptr nonnull %3) #24
  call void @_ZNK4cvc58internal5DType12getParameterEm(ptr dead_on_unwind nonnull writable sret(%"class.cvc5::internal::TypeNode") align 8 %3, ptr noundef nonnull align 8 dereferenceable(448) %31, i64 noundef %.0)
  %50 = add i64 %.0, 1
  %51 = load ptr, ptr %0, align 8, !tbaa !3, !noalias !225
  %52 = getelementptr inbounds nuw i8, ptr %51, i64 8
  %53 = load i64, ptr %52, align 8, !noalias !225
  %54 = trunc i64 %53 to i32
  %55 = and i32 %54, 1023
  %56 = icmp eq i32 %55, 1023
  %57 = select i1 %56, i32 -1, i32 %55
  %58 = invoke noundef i32 @_ZN4cvc58internal4kind10metaKindOfENS1_6Kind_tE(i32 noundef %57)
          to label %.noexc unwind label %106

.noexc:                                           ; preds = %49
  %59 = icmp eq i32 %58, 2
  %60 = zext i1 %59 to i64
  %spec.select.i.i = add i64 %50, %60
  %61 = getelementptr inbounds nuw i8, ptr %51, i64 24
  %sext = shl i64 %spec.select.i.i, 32
  %62 = ashr exact i64 %sext, 32
  %63 = getelementptr inbounds [0 x ptr], ptr %61, i64 0, i64 %62
  %64 = load ptr, ptr %63, align 8, !tbaa !32, !noalias !225
  %65 = load i64, ptr %64, align 8, !noalias !225
  %66 = lshr i64 %65, 40
  %67 = trunc nuw nsw i64 %66 to i32
  %68 = and i32 %67, 1048575
  %69 = icmp samesign ult i32 %68, 1048574
  br i1 %69, label %70, label %75, !prof !27

70:                                               ; preds = %.noexc
  %71 = add i64 %65, 1099511627776
  %72 = and i64 %71, 1152920405095219200
  %73 = and i64 %65, -1152920405095219201
  %74 = or disjoint i64 %72, %73
  store i64 %74, ptr %64, align 8, !noalias !225
  br label %_ZNK4cvc58internal8TypeNodeixEi.exit26

75:                                               ; preds = %.noexc
  %76 = icmp eq i32 %68, 1048574
  br i1 %76, label %77, label %_ZNK4cvc58internal8TypeNodeixEi.exit26, !prof !9

77:                                               ; preds = %75
  %78 = or i64 %65, 1152920405095219200
  store i64 %78, ptr %64, align 8, !noalias !225
  invoke void @_ZN4cvc58internal4expr9NodeValue20markRefCountMaxedOutEv(ptr noundef nonnull align 8 dereferenceable(24) %64)
          to label %._ZNK4cvc58internal8TypeNodeixEi.exit26_crit_edge unwind label %106

._ZNK4cvc58internal8TypeNodeixEi.exit26_crit_edge: ; preds = %77
  %.pre = load i64, ptr %64, align 8
  br label %_ZNK4cvc58internal8TypeNodeixEi.exit26

_ZNK4cvc58internal8TypeNodeixEi.exit26:           ; preds = %._ZNK4cvc58internal8TypeNodeixEi.exit26_crit_edge, %75, %70
  %79 = phi i64 [ %.pre, %._ZNK4cvc58internal8TypeNodeixEi.exit26_crit_edge ], [ %65, %75 ], [ %74, %70 ]
  %80 = load ptr, ptr %3, align 8, !tbaa !3
  %81 = icmp eq ptr %80, %64
  %82 = and i64 %79, 1152920405095219200
  %.not.i.i27 = icmp eq i64 %82, 1152920405095219200
  br i1 %.not.i.i27, label %_ZN4cvc58internal8TypeNodeD2Ev.exit28, label %83, !prof !9

83:                                               ; preds = %_ZNK4cvc58internal8TypeNodeixEi.exit26
  %84 = add i64 %79, 1152920405095219200
  %85 = and i64 %84, 1152920405095219200
  %86 = and i64 %79, -1152920405095219201
  %87 = or disjoint i64 %85, %86
  store i64 %87, ptr %64, align 8
  %88 = icmp eq i64 %85, 0
  br i1 %88, label %89, label %_ZN4cvc58internal8TypeNodeD2Ev.exit28, !prof !9

89:                                               ; preds = %83
  invoke void @_ZN4cvc58internal4expr9NodeValue15markForDeletionEv(ptr noundef nonnull align 8 dereferenceable(24) %64)
          to label %_ZN4cvc58internal8TypeNodeD2Ev.exit28 unwind label %90

90:                                               ; preds = %89
  %91 = landingpad { ptr, i32 }
          catch ptr null
  %92 = extractvalue { ptr, i32 } %91, 0
  call void @__clang_call_terminate(ptr %92) #23
  unreachable

_ZN4cvc58internal8TypeNodeD2Ev.exit28:            ; preds = %_ZNK4cvc58internal8TypeNodeixEi.exit26, %83, %89
  %93 = load ptr, ptr %3, align 8, !tbaa !3
  %94 = load i64, ptr %93, align 8
  %95 = and i64 %94, 1152920405095219200
  %.not.i.i29 = icmp eq i64 %95, 1152920405095219200
  br i1 %.not.i.i29, label %_ZN4cvc58internal8TypeNodeD2Ev.exit30, label %96, !prof !9

96:                                               ; preds = %_ZN4cvc58internal8TypeNodeD2Ev.exit28
  %97 = add i64 %94, 1152920405095219200
  %98 = and i64 %97, 1152920405095219200
  %99 = and i64 %94, -1152920405095219201
  %100 = or disjoint i64 %98, %99
  store i64 %100, ptr %93, align 8
  %101 = icmp eq i64 %98, 0
  br i1 %101, label %102, label %_ZN4cvc58internal8TypeNodeD2Ev.exit30, !prof !9

102:                                              ; preds = %96
  invoke void @_ZN4cvc58internal4expr9NodeValue15markForDeletionEv(ptr noundef nonnull align 8 dereferenceable(24) %93)
          to label %_ZN4cvc58internal8TypeNodeD2Ev.exit30 unwind label %103

103:                                              ; preds = %102
  %104 = landingpad { ptr, i32 }
          catch ptr null
  %105 = extractvalue { ptr, i32 } %104, 0
  call void @__clang_call_terminate(ptr %105) #23
  unreachable

_ZN4cvc58internal8TypeNodeD2Ev.exit30:            ; preds = %_ZN4cvc58internal8TypeNodeD2Ev.exit28, %96, %102
  call void @llvm.lifetime.end.p0(i64 8, ptr nonnull %3) #24
  br i1 %81, label %.critedge, label %46, !llvm.loop !228

106:                                              ; preds = %77, %49
  %107 = landingpad { ptr, i32 }
          cleanup
  call void @_ZN4cvc58internal8TypeNodeD2Ev(ptr noundef nonnull align 8 dereferenceable(8) %3) #24
  call void @llvm.lifetime.end.p0(i64 8, ptr nonnull %3) #24
  br label %108

108:                                              ; preds = %106, %47
  %.pn = phi { ptr, i32 } [ %107, %106 ], [ %48, %47 ]
  resume { ptr, i32 } %.pn

.critedge:                                        ; preds = %46, %_ZN4cvc58internal8TypeNodeD2Ev.exit30, %1, %1, %1, %9
  %.018 = phi i1 [ false, %9 ], [ true, %1 ], [ true, %1 ], [ true, %1 ], [ %exitcond.not, %_ZN4cvc58internal8TypeNodeD2Ev.exit30 ], [ %exitcond.not, %46 ]
  ret i1 %.018
}